target datalayout = "e-m:e-p270:32:32-p271:32:32-p272:64:64-i64:64-i128:128-f80:128-n8:16:32:64-S128"
target triple = "x86_64-pc-linux-gnu"

%"class.open3d::core::SmallVectorBase" = type { ptr, i32, i32 }
%"class.open3d::utility::optional" = type { %"struct.open3d::utility::constexpr_optional_base" }
%"struct.open3d::utility::constexpr_optional_base" = type { i8, %"union.open3d::utility::constexpr_storage_t" }
%"union.open3d::utility::constexpr_storage_t" = type { i64 }
%"class.open3d::core::SizeVector" = type { %"class.open3d::core::SmallVector.0" }
%"class.open3d::core::SmallVector.0" = type { %"class.open3d::core::SmallVectorImpl.1", %"struct.open3d::core::SmallVectorStorage.4" }
%"class.open3d::core::SmallVectorImpl.1" = type { %"class.open3d::core::SmallVectorTemplateBase.2" }
%"class.open3d::core::SmallVectorTemplateBase.2" = type { %"class.open3d::core::SmallVectorTemplateCommon.3" }
%"class.open3d::core::SmallVectorTemplateCommon.3" = type { %"class.open3d::core::SmallVectorBase" }
%"struct.open3d::core::SmallVectorStorage.4" = type { [32 x i8] }
%class.anon = type { i8 }

@.str = private unnamed_addr constant [122 x i8] c"generated/home/dtcxzyw/WorkSpace/Projects/compilers/llvm-opt-benchmark/bench/open3d/Open3D/cpp/open3d/core/SizeVector.cpp\00", align 1
@.str.1 = private unnamed_addr constant [44 x i8] c"Cannot convert dynamic shape to SizeVector.\00", align 1
@.str.3 = private unnamed_addr constant [20 x i8] c"bad optional access\00", align 1
@_ZTIN6open3d7utility19bad_optional_accessE = linkonce_odr constant { ptr, ptr, ptr } { ptr getelementptr inbounds (ptr, ptr @_ZTVN10__cxxabiv120__si_class_type_infoE, i64 2), ptr @_ZTSN6open3d7utility19bad_optional_accessE, ptr @_ZTISt11logic_error }, comdat, align 8
@_ZTVN6open3d7utility19bad_optional_accessE = linkonce_odr unnamed_addr constant { [5 x ptr] } { [5 x ptr] [ptr null, ptr @_ZTIN6open3d7utility19bad_optional_accessE, ptr @_ZNSt11logic_errorD2Ev, ptr @_ZN6open3d7utility19bad_optional_accessD0Ev, ptr @_ZNKSt11logic_error4whatEv] }, comdat, align 8
@_ZN6open3d4core10SizeVectorC1Ell = unnamed_addr alias void (ptr, i64, i64), ptr @_ZN6open3d4core10SizeVectorC2Ell

; Function Attrs: mustprogress nounwind ssp uwtable
define linkonce_odr noundef ptr @_ZNK6open3d4core25SmallVectorTemplateCommonIlvE10getFirstElEv(ptr noundef nonnull align 8 dereferenceable(16) %0) #2 comdat align 2 {
  %2 = alloca ptr, align 8
  store ptr %0, ptr %2, align 8, !tbaa !73
  %3 = load ptr, ptr %2, align 8
  %4 = getelementptr inbounds nuw i8, ptr %3, i64 16
  ret ptr %4
}

; Function Attrs: mustprogress ssp uwtable
define linkonce_odr void @_ZN6open3d7utility19bad_optional_accessC2EPKc(ptr noundef nonnull align 8 dereferenceable(16) %0, ptr noundef %1) unnamed_addr #0 comdat align 2 {
  %3 = alloca ptr, align 8
  %4 = alloca ptr, align 8
  store ptr %0, ptr %3, align 8, !tbaa !102
  store ptr %1, ptr %4, align 8, !tbaa !81
  %5 = load ptr, ptr %3, align 8
  %6 = load ptr, ptr %4, align 8, !tbaa !81
  call void @_ZNSt11logic_errorC2EPKc(ptr noundef nonnull align 8 dereferenceable(16) %5, ptr noundef %6)
  store ptr getelementptr inbounds inrange(-16, 24) ({ [5 x ptr] }, ptr @_ZTVN6open3d7utility19bad_optional_accessE, i32 0, i32 0, i32 2), ptr %5, align 8, !tbaa !104
  ret void
}

; Function Attrs: mustprogress nounwind ssp uwtable
define linkonce_odr noundef nonnull align 8 dereferenceable(8) ptr @_ZNKR6open3d7utility8optionalIlE13contained_valEv(ptr noundef nonnull align 8 dereferenceable(16) %0) #2 comdat align 2 {
  %2 = alloca ptr, align 8
  store ptr %0, ptr %2, align 8, !tbaa !12
  %3 = load ptr, ptr %2, align 8
  %4 = getelementptr inbounds nuw %"struct.open3d::utility::constexpr_optional_base", ptr %3, i32 0, i32 1
  ret ptr %4
}

; Function Attrs: mustprogress nounwind ssp uwtable
define linkonce_odr noundef zeroext i1 @_ZNK6open3d7utility8optionalIlE11initializedEv(ptr noundef nonnull align 8 dereferenceable(16) %0) #2 comdat align 2 {
  %2 = alloca ptr, align 8
  store ptr %0, ptr %2, align 8, !tbaa !12
  %3 = load ptr, ptr %2, align 8
  %4 = getelementptr inbounds nuw %"struct.open3d::utility::constexpr_optional_base", ptr %3, i32 0, i32 0
  %5 = load i8, ptr %4, align 8, !tbaa !50, !range !54, !noundef !55
  %6 = trunc i8 %5 to i1
  ret i1 %6
}

; Function Attrs: mustprogress ssp uwtable
define linkonce_odr noundef zeroext i1 @_ZNK6open3d4core25SmallVectorTemplateCommonIlvE7isSmallEv(ptr noundef nonnull align 8 dereferenceable(16) %0) #0 comdat align 2 {
  %2 = alloca ptr, align 8
  store ptr %0, ptr %2, align 8, !tbaa !73
  %3 = load ptr, ptr %2, align 8
  %4 = getelementptr inbounds nuw %"class.open3d::core::SmallVectorBase", ptr %3, i32 0, i32 0
  %5 = load ptr, ptr %4, align 8, !tbaa !29
  %6 = call noundef ptr @_ZNK6open3d4core25SmallVectorTemplateCommonIlvE10getFirstElEv(ptr noundef nonnull align 8 dereferenceable(16) %3)
  %7 = icmp eq ptr %5, %6
  ret i1 %7
}

; Function Attrs: mustprogress ssp uwtable
define linkonce_odr noundef nonnull align 8 dereferenceable(8) ptr @_ZNKR6open3d7utility8optionalIlE5valueEv(ptr noundef nonnull align 8 dereferenceable(16) %0) #0 comdat align 2 personality ptr @__gxx_personality_v0 {
  %2 = alloca ptr, align 8
  %3 = alloca ptr, align 8
  %4 = alloca i1, align 1
  %5 = alloca ptr, align 8
  %6 = alloca i32, align 4
  store ptr %0, ptr %2, align 8, !tbaa !12
  %7 = load ptr, ptr %2, align 8
  %8 = call noundef zeroext i1 @_ZNK6open3d7utility8optionalIlE11initializedEv(ptr noundef nonnull align 8 dereferenceable(16) %7) #25
  store i1 false, ptr %4, align 1
  br i1 %8, label %9, label %11

9:                                                ; preds = %1
  %10 = call noundef nonnull align 8 dereferenceable(8) ptr @_ZNKR6open3d7utility8optionalIlE13contained_valEv(ptr noundef nonnull align 8 dereferenceable(16) %7)
  br label %16

11:                                               ; preds = %1
  %12 = call ptr @__cxa_allocate_exception(i64 16) #25
  store ptr %12, ptr %3, align 8
  store i1 true, ptr %4, align 1
  invoke void @_ZN6open3d7utility19bad_optional_accessC2EPKc(ptr noundef nonnull align 8 dereferenceable(16) %12, ptr noundef @.str.3)
          to label %13 unwind label %18

13:                                               ; preds = %11
  call void @__cxa_throw(ptr %12, ptr @_ZTIN6open3d7utility19bad_optional_accessE, ptr @_ZNSt11logic_errorD2Ev) #26
  unreachable

14:                                               ; No predecessors!
  %15 = call noundef nonnull align 8 dereferenceable(8) ptr @_ZNKR6open3d7utility8optionalIlE13contained_valEv(ptr noundef nonnull align 8 dereferenceable(16) %7)
  br label %16

16:                                               ; preds = %14, %9
  %17 = phi ptr [ %10, %9 ], [ %15, %14 ]
  ret ptr %17

18:                                               ; preds = %11
  %19 = landingpad { ptr, i32 }
          cleanup
  %20 = extractvalue { ptr, i32 } %19, 0
  store ptr %20, ptr %5, align 8
  %21 = extractvalue { ptr, i32 } %19, 1
  store i32 %21, ptr %6, align 4
  %22 = load i1, ptr %4, align 1
  br i1 %22, label %23, label %25

23:                                               ; preds = %18
  %24 = load ptr, ptr %3, align 8
  call void @__cxa_free_exception(ptr %24) #25
  br label %25

25:                                               ; preds = %23, %18
  br label %26

26:                                               ; preds = %25
  %27 = load ptr, ptr %5, align 8
  %28 = load i32, ptr %6, align 4
  %29 = insertvalue { ptr, i32 } poison, ptr %27, 0
  %30 = insertvalue { ptr, i32 } %29, i32 %28, 1
  resume { ptr, i32 } %30
}

; Function Attrs: mustprogress nounwind ssp uwtable
define linkonce_odr noundef zeroext i1 @_ZNK6open3d7utility8optionalIlE9has_valueEv(ptr noundef nonnull align 8 dereferenceable(16) %0) #2 comdat align 2 {
  %2 = alloca ptr, align 8
  store ptr %0, ptr %2, align 8, !tbaa !12
  %3 = load ptr, ptr %2, align 8
  %4 = call noundef zeroext i1 @_ZNK6open3d7utility8optionalIlE11initializedEv(ptr noundef nonnull align 8 dereferenceable(16) %3) #25
  ret i1 %4
}

; Function Attrs: noinline noreturn nounwind ssp uwtable
define linkonce_odr hidden void @__clang_call_terminate(ptr noundef %0) #9 comdat {
  %2 = call ptr @__cxa_begin_catch(ptr %0) #25
  call void @_ZSt9terminatev() #27
  unreachable
}

; Function Attrs: mustprogress nounwind ssp uwtable
define linkonce_odr void @_ZN6open3d4core15SmallVectorImplIlED2Ev(ptr noundef nonnull align 8 dereferenceable(16) %0) unnamed_addr #2 comdat align 2 personality ptr @__gxx_personality_v0 {
  %2 = alloca ptr, align 8
  store ptr %0, ptr %2, align 8, !tbaa !106
  %3 = load ptr, ptr %2, align 8
  %4 = invoke noundef zeroext i1 @_ZNK6open3d4core25SmallVectorTemplateCommonIlvE7isSmallEv(ptr noundef nonnull align 8 dereferenceable(16) %3)
          to label %5 unwind label %9

5:                                                ; preds = %1
  br i1 %4, label %8, label %6

6:                                                ; preds = %5
  %7 = call noundef ptr @_ZN6open3d4core25SmallVectorTemplateCommonIlvE5beginEv(ptr noundef nonnull align 8 dereferenceable(16) %3)
  call void @free(ptr noundef %7) #25
  br label %8

8:                                                ; preds = %6, %5
  ret void

9:                                                ; preds = %1
  %10 = landingpad { ptr, i32 }
          catch ptr null
  %11 = extractvalue { ptr, i32 } %10, 0
  call void @__clang_call_terminate(ptr %11) #27
  unreachable
}

; Function Attrs: mustprogress nounwind ssp uwtable
define linkonce_odr void @_ZN6open3d4core23SmallVectorTemplateBaseIlLb1EE13destroy_rangeEPlS3_(ptr noundef %0, ptr noundef %1) #2 comdat align 2 {
  %3 = alloca ptr, align 8
  %4 = alloca ptr, align 8
  store ptr %0, ptr %3, align 8, !tbaa !40
  store ptr %1, ptr %4, align 8, !tbaa !40
  ret void
}

; Function Attrs: mustprogress nounwind ssp uwtable
define linkonce_odr noundef ptr @_ZN6open3d4core25SmallVectorTemplateCommonIlvE3endEv(ptr noundef nonnull align 8 dereferenceable(16) %0) #2 comdat align 2 {
  %2 = alloca ptr, align 8
  store ptr %0, ptr %2, align 8, !tbaa !73
  %3 = load ptr, ptr %2, align 8
  %4 = call noundef ptr @_ZN6open3d4core25SmallVectorTemplateCommonIlvE5beginEv(ptr noundef nonnull align 8 dereferenceable(16) %3)
  %5 = call noundef i64 @_ZNK6open3d4core15SmallVectorBaseIjE4sizeEv(ptr noundef nonnull align 8 dereferenceable(16) %3)
  %6 = getelementptr inbounds nuw i64, ptr %4, i64 %5
  ret ptr %6
}

; Function Attrs: inlinehint mustprogress ssp uwtable
define internal noundef i64 @"_ZZNK6open3d4core17DynamicSizeVector12ToSizeVectorEvENK3$_0clINS_7utility8optionalIlEEEEDaRKT_"(ptr noundef nonnull align 1 dereferenceable(1) %0, ptr noundef nonnull align 8 dereferenceable(16) %1) #7 align 2 {
  %3 = alloca ptr, align 8
  %4 = alloca ptr, align 8
  store ptr %0, ptr %3, align 8, !tbaa !28
  store ptr %1, ptr %4, align 8, !tbaa !12
  %5 = load ptr, ptr %4, align 8, !tbaa !12
  %6 = call noundef zeroext i1 @_ZNK6open3d7utility8optionalIlE9has_valueEv(ptr noundef nonnull align 8 dereferenceable(16) %5) #25
  br i1 %6, label %8, label %7

7:                                                ; preds = %2
  call void @_ZN6open3d7utility6Logger9LogError_IJEEEvPKciS4_S4_DpOT_(ptr noundef @.str, i32 noundef 44, ptr noundef @"__PRETTY_FUNCTION__._ZZNK6open3d4core17DynamicSizeVector12ToSizeVectorEvENK3$_0clINS_7utility8optionalIlEEEEDaRKT_", ptr noundef @.str.1) #26
  unreachable

8:                                                ; preds = %2
  %9 = load ptr, ptr %4, align 8, !tbaa !12
  %10 = call noundef nonnull align 8 dereferenceable(8) ptr @_ZNKR6open3d7utility8optionalIlE5valueEv(ptr noundef nonnull align 8 dereferenceable(16) %9)
  %11 = load i64, ptr %10, align 8, !tbaa !14
  ret i64 %11
}

; Function Attrs: mustprogress nounwind ssp uwtable
define linkonce_odr void @_ZN6open3d4core11SmallVectorIlLj4EED2Ev(ptr noundef nonnull align 8 dereferenceable(48) %0) unnamed_addr #2 comdat align 2 personality ptr @__gxx_personality_v0 {
  %2 = alloca ptr, align 8
  store ptr %0, ptr %2, align 8, !tbaa !79
  %3 = load ptr, ptr %2, align 8
  %4 = call noundef ptr @_ZN6open3d4core25SmallVectorTemplateCommonIlvE5beginEv(ptr noundef nonnull align 8 dereferenceable(16) %3)
  %5 = invoke noundef ptr @_ZN6open3d4core25SmallVectorTemplateCommonIlvE3endEv(ptr noundef nonnull align 8 dereferenceable(16) %3)
          to label %6 unwind label %8

6:                                                ; preds = %1
  invoke void @_ZN6open3d4core23SmallVectorTemplateBaseIlLb1EE13destroy_rangeEPlS3_(ptr noundef %4, ptr noundef %5)
          to label %7 unwind label %8

7:                                                ; preds = %6
  call void @_ZN6open3d4core15SmallVectorImplIlED2Ev(ptr noundef nonnull align 8 dereferenceable(16) %3) #25
  ret void

8:                                                ; preds = %6, %1
  %9 = landingpad { ptr, i32 }
          catch ptr null
  %10 = extractvalue { ptr, i32 } %9, 0
  call void @__clang_call_terminate(ptr %10) #27
  unreachable
}

; Function Attrs: mustprogress ssp uwtable
define internal noundef ptr @"_ZSt9transformIPKN6open3d7utility8optionalIlEEPlZNKS0_4core17DynamicSizeVector12ToSizeVectorEvE3$_0ET0_T_SB_SA_T1_"(ptr noundef %0, ptr noundef %1, ptr noundef %2) #0 {
  %4 = alloca %class.anon, align 1
  %5 = alloca ptr, align 8
  %6 = alloca ptr, align 8
  %7 = alloca ptr, align 8
  store ptr %0, ptr %5, align 8, !tbaa !12
  store ptr %1, ptr %6, align 8, !tbaa !12
  store ptr %2, ptr %7, align 8, !tbaa !40
  br label %8

8:                                                ; preds = %16, %3
  %9 = load ptr, ptr %5, align 8, !tbaa !12
  %10 = load ptr, ptr %6, align 8, !tbaa !12
  %11 = icmp ne ptr %9, %10
  br i1 %11, label %12, label %21

12:                                               ; preds = %8
  %13 = load ptr, ptr %5, align 8, !tbaa !12
  %14 = call noundef i64 @"_ZZNK6open3d4core17DynamicSizeVector12ToSizeVectorEvENK3$_0clINS_7utility8optionalIlEEEEDaRKT_"(ptr noundef nonnull align 1 dereferenceable(1) %4, ptr noundef nonnull align 8 dereferenceable(16) %13)
  %15 = load ptr, ptr %7, align 8, !tbaa !40
  store i64 %14, ptr %15, align 8, !tbaa !14
  br label %16

16:                                               ; preds = %12
  %17 = load ptr, ptr %5, align 8, !tbaa !12
  %18 = getelementptr inbounds nuw %"class.open3d::utility::optional", ptr %17, i32 1
  store ptr %18, ptr %5, align 8, !tbaa !12
  %19 = load ptr, ptr %7, align 8, !tbaa !40
  %20 = getelementptr inbounds nuw i64, ptr %19, i32 1
  store ptr %20, ptr %7, align 8, !tbaa !40
  br label %8, !llvm.loop !78

21:                                               ; preds = %8
  %22 = load ptr, ptr %7, align 8, !tbaa !40
  ret ptr %22
}

; Function Attrs: mustprogress nounwind ssp uwtable
define linkonce_odr noundef ptr @_ZN6open3d4core25SmallVectorTemplateCommonIlvE5beginEv(ptr noundef nonnull align 8 dereferenceable(16) %0) #2 comdat align 2 {
  %2 = alloca ptr, align 8
  store ptr %0, ptr %2, align 8, !tbaa !73
  %3 = load ptr, ptr %2, align 8
  %4 = getelementptr inbounds nuw %"class.open3d::core::SmallVectorBase", ptr %3, i32 0, i32 0
  %5 = load ptr, ptr %4, align 8, !tbaa !29
  ret ptr %5
}

; Function Attrs: mustprogress nounwind ssp uwtable
define linkonce_odr noundef ptr @_ZNK6open3d4core25SmallVectorTemplateCommonINS_7utility8optionalIlEEvE3endEv(ptr noundef nonnull align 8 dereferenceable(16) %0) #2 comdat align 2 {
  %2 = alloca ptr, align 8
  store ptr %0, ptr %2, align 8, !tbaa !24
  %3 = load ptr, ptr %2, align 8
  %4 = call noundef ptr @_ZNK6open3d4core25SmallVectorTemplateCommonINS_7utility8optionalIlEEvE5beginEv(ptr noundef nonnull align 8 dereferenceable(16) %3)
  %5 = call noundef i64 @_ZNK6open3d4core15SmallVectorBaseIjE4sizeEv(ptr noundef nonnull align 8 dereferenceable(16) %3)
  %6 = getelementptr inbounds nuw %"class.open3d::utility::optional", ptr %4, i64 %5
  ret ptr %6
}

; Function Attrs: mustprogress nounwind ssp uwtable
define linkonce_odr noundef ptr @_ZNK6open3d4core25SmallVectorTemplateCommonINS_7utility8optionalIlEEvE5beginEv(ptr noundef nonnull align 8 dereferenceable(16) %0) #2 comdat align 2 {
  %2 = alloca ptr, align 8
  store ptr %0, ptr %2, align 8, !tbaa !24
  %3 = load ptr, ptr %2, align 8
  %4 = getelementptr inbounds nuw %"class.open3d::core::SmallVectorBase", ptr %3, i32 0, i32 0
  %5 = load ptr, ptr %4, align 8, !tbaa !29
  ret ptr %5
}

; Function Attrs: mustprogress nounwind ssp uwtable
define linkonce_odr noundef i64 @_ZNK6open3d4core15SmallVectorBaseIjE4sizeEv(ptr noundef nonnull align 8 dereferenceable(16) %0) #2 comdat align 2 {
  %2 = alloca ptr, align 8
  store ptr %0, ptr %2, align 8, !tbaa !26
  %3 = load ptr, ptr %2, align 8
  %4 = getelementptr inbounds nuw %"class.open3d::core::SmallVectorBase", ptr %3, i32 0, i32 1
  %5 = load i32, ptr %4, align 8, !tbaa !31
  %6 = zext i32 %5 to i64
  ret i64 %6
}

; Function Attrs: mustprogress ssp uwtable
define void @_ZNK6open3d4core17DynamicSizeVector12ToSizeVectorEv(ptr dead_on_unwind noalias writable sret(%"class.open3d::core::SizeVector") align 8 %0, ptr noundef nonnull align 8 dereferenceable(80) %1) #0 align 2 personality ptr @__gxx_personality_v0 {
  %3 = alloca ptr, align 8
  %4 = alloca ptr, align 8
  %5 = alloca i1, align 1
  %6 = alloca ptr, align 8
  %7 = alloca i32, align 4
  store ptr %0, ptr %3, align 8
  store ptr %1, ptr %4, align 8, !tbaa !4
  %8 = load ptr, ptr %4, align 8
  store i1 false, ptr %5, align 1
  %9 = call noundef i64 @_ZNK6open3d4core15SmallVectorBaseIjE4sizeEv(ptr noundef nonnull align 8 dereferenceable(16) %8)
  call void @_ZN6open3d4core10SizeVectorC1Ell(ptr noundef nonnull align 8 dereferenceable(48) %0, i64 noundef %9, i64 noundef 0)
  %10 = call noundef ptr @_ZNK6open3d4core25SmallVectorTemplateCommonINS_7utility8optionalIlEEvE5beginEv(ptr noundef nonnull align 8 dereferenceable(16) %8)
  %11 = call noundef ptr @_ZNK6open3d4core25SmallVectorTemplateCommonINS_7utility8optionalIlEEvE3endEv(ptr noundef nonnull align 8 dereferenceable(16) %8)
  %12 = invoke noundef ptr @_ZN6open3d4core25SmallVectorTemplateCommonIlvE5beginEv(ptr noundef nonnull align 8 dereferenceable(16) %0)
          to label %13 unwind label %17

13:                                               ; preds = %2
  %14 = invoke noundef ptr @"_ZSt9transformIPKN6open3d7utility8optionalIlEEPlZNKS0_4core17DynamicSizeVector12ToSizeVectorEvE3$_0ET0_T_SB_SA_T1_"(ptr noundef %10, ptr noundef %11, ptr noundef %12)
          to label %15 unwind label %17

15:                                               ; preds = %13
  store i1 true, ptr %5, align 1
  %16 = load i1, ptr %5, align 1
  br i1 %16, label %22, label %21

17:                                               ; preds = %13, %2
  %18 = landingpad { ptr, i32 }
          cleanup
  %19 = extractvalue { ptr, i32 } %18, 0
  store ptr %19, ptr %6, align 8
  %20 = extractvalue { ptr, i32 } %18, 1
  store i32 %20, ptr %7, align 4
  call void @_ZN6open3d4core11SmallVectorIlLj4EED2Ev(ptr noundef nonnull align 8 dereferenceable(48) %0) #25
  br label %23

21:                                               ; preds = %15
  call void @_ZN6open3d4core11SmallVectorIlLj4EED2Ev(ptr noundef nonnull align 8 dereferenceable(48) %0) #25
  br label %22

22:                                               ; preds = %21, %15
  ret void

23:                                               ; preds = %17
  %24 = load ptr, ptr %6, align 8
  %25 = load i32, ptr %7, align 4
  %26 = insertvalue { ptr, i32 } poison, ptr %24, 0
  %27 = insertvalue { ptr, i32 } %26, i32 %25, 1
  resume { ptr, i32 } %27
}