; Function Attrs: mustprogress ssp uwtable
define void @_ZNK6open3d4core17DynamicSizeVector12ToSizeVectorEv(ptr dead_on_unwind noalias writable sret(%"class.open3d::core::SizeVector") align 8 %0, ptr noundef nonnull readonly align 8 captures(none) dereferenceable(80) %1) local_unnamed_addr #0 align 2 personality ptr @__gxx_personality_v0 {
  %3 = getelementptr inbounds nuw i8, ptr %1, i64 8
  %4 = load i32, ptr %3, align 8, !tbaa !15
  %5 = zext i32 %4 to i64
  tail call void @_ZN6open3d4core10SizeVectorC1Ell(ptr noundef nonnull align 8 dereferenceable(48) %0, i64 noundef %5, i64 noundef 0)
  %6 = load ptr, ptr %1, align 8, !tbaa !11
  %7 = load i32, ptr %3, align 8, !tbaa !15
  %8 = zext i32 %7 to i64
  %9 = getelementptr inbounds nuw %"class.open3d::utility::optional", ptr %6, i64 %8
  %.not10.i = icmp eq i32 %7, 0
  br i1 %.not10.i, label %"_ZSt9transformIPKN6open3d7utility8optionalIlEEPlZNKS0_4core17DynamicSizeVector12ToSizeVectorEvE3$_0ET0_T_SB_SA_T1_.exit", label %.lr.ph.i.preheader

.lr.ph.i.preheader:                               ; preds = %2
  %10 = load ptr, ptr %0, align 8, !tbaa !11
  br label %.lr.ph.i

.lr.ph.i:                                         ; preds = %.lr.ph.i.preheader, %"_ZZNK6open3d4core17DynamicSizeVector12ToSizeVectorEvENK3$_0clINS_7utility8optionalIlEEEEDaRKT_.exit.i"
  %.012.i = phi ptr [ %15, %"_ZZNK6open3d4core17DynamicSizeVector12ToSizeVectorEvENK3$_0clINS_7utility8optionalIlEEEEDaRKT_.exit.i" ], [ %10, %.lr.ph.i.preheader ]
  %.0711.i = phi ptr [ %14, %"_ZZNK6open3d4core17DynamicSizeVector12ToSizeVectorEvENK3$_0clINS_7utility8optionalIlEEEEDaRKT_.exit.i" ], [ %6, %.lr.ph.i.preheader ]
  %.07.val.i = load i8, ptr %.0711.i, align 8, !tbaa !16, !range !20, !noundef !21
  %11 = trunc nuw i8 %.07.val.i to i1
  br i1 %11, label %"_ZZNK6open3d4core17DynamicSizeVector12ToSizeVectorEvENK3$_0clINS_7utility8optionalIlEEEEDaRKT_.exit.i", label %12

12:                                               ; preds = %.lr.ph.i
  invoke void @_ZN6open3d7utility6Logger9LogError_IJEEEvPKciS4_S4_DpOT_(ptr noundef nonnull @.str, i32 noundef 44, ptr noundef nonnull @"__PRETTY_FUNCTION__._ZZNK6open3d4core17DynamicSizeVector12ToSizeVectorEvENK3$_0clINS_7utility8optionalIlEEEEDaRKT_", ptr noundef nonnull @.str.1) #31
          to label %.noexc unwind label %16

.noexc:                                           ; preds = %12
  unreachable

"_ZZNK6open3d4core17DynamicSizeVector12ToSizeVectorEvENK3$_0clINS_7utility8optionalIlEEEEDaRKT_.exit.i": ; preds = %.lr.ph.i
  %13 = getelementptr i8, ptr %.0711.i, i64 8
  %.07.val8.i = load i64, ptr %13, align 8
  store i64 %.07.val8.i, ptr %.012.i, align 8, !tbaa !9
  %14 = getelementptr inbounds nuw i8, ptr %.0711.i, i64 16
  %15 = getelementptr inbounds nuw i8, ptr %.012.i, i64 8
  %.not.i = icmp eq ptr %14, %9
  br i1 %.not.i, label %"_ZSt9transformIPKN6open3d7utility8optionalIlEEPlZNKS0_4core17DynamicSizeVector12ToSizeVectorEvE3$_0ET0_T_SB_SA_T1_.exit", label %.lr.ph.i, !llvm.loop !30

16:                                               ; preds = %12
  %17 = landingpad { ptr, i32 }
          cleanup
  %18 = load ptr, ptr %0, align 8, !tbaa !11
  %19 = getelementptr inbounds nuw i8, ptr %0, i64 16
  %20 = icmp eq ptr %18, %19
  br i1 %20, label %_ZN6open3d4core11SmallVectorIlLj4EED2Ev.exit, label %21

21:                                               ; preds = %16
  tail call void @free(ptr noundef %18) #29
  br label %_ZN6open3d4core11SmallVectorIlLj4EED2Ev.exit

_ZN6open3d4core11SmallVectorIlLj4EED2Ev.exit:     ; preds = %16, %21
  resume { ptr, i32 } %17

"_ZSt9transformIPKN6open3d7utility8optionalIlEEPlZNKS0_4core17DynamicSizeVector12ToSizeVectorEvE3$_0ET0_T_SB_SA_T1_.exit": ; preds = %"_ZZNK6open3d4core17DynamicSizeVector12ToSizeVectorEvENK3$_0clINS_7utility8optionalIlEEEEDaRKT_.exit.i", %2
  ret void
}